target datalayout = "e-m:e-p270:32:32-p271:32:32-p272:64:64-i64:64-i128:128-f80:128-n8:16:32:64-S128"
target triple = "x86_64-pc-linux-gnu"

%struct._zval_struct = type { %union._zend_value, %union.anon, %union.anon.2 }
%union._zend_value = type { i64 }
%union.anon = type { i32 }
%union.anon.2 = type { i32 }
%struct._zend_refcounted_h = type { i32, %union.anon.3 }
%union.anon.3 = type { i32 }
%struct._zend_execute_data = type { ptr, ptr, ptr, ptr, %struct._zval_struct, ptr, ptr, ptr, ptr }
%struct._spl_fixedarray_object = type { %struct._spl_fixedarray, ptr, %struct._zend_object }
%struct._spl_fixedarray = type { i64, ptr, i64 }
%struct._zend_object = type { %struct._zend_refcounted_h, i32, ptr, ptr, ptr, [1 x %struct._zval_struct] }
%struct.anon.0 = type { i8, i8, %union.anon.1 }
%union.anon.1 = type { i16 }

; Function Attrs: nounwind uwtable
define internal ptr @spl_fixed_array_from_obj(ptr noundef %0) #0 {
  %2 = alloca ptr, align 8
  store ptr %0, ptr %2, align 8
  %3 = load ptr, ptr %2, align 8
  %4 = getelementptr inbounds i8, ptr %3, i64 -32
  ret ptr %4
}

; Function Attrs: nounwind uwtable
define hidden void @zim_SplFixedArray_jsonSerialize(ptr noundef %0, ptr noundef %1) #0 {
  %3 = alloca ptr, align 8
  %4 = alloca ptr, align 8
  %5 = alloca ptr, align 8
  %6 = alloca ptr, align 8
  %7 = alloca ptr, align 8
  %8 = alloca ptr, align 8
  %9 = alloca ptr, align 8
  %10 = alloca i64, align 8
  store ptr %0, ptr %5, align 8
  store ptr %1, ptr %6, align 8
  br label %11

11:                                               ; preds = %2
  %12 = load ptr, ptr %5, align 8
  %13 = getelementptr inbounds %struct._zend_execute_data, ptr %12, i32 0, i32 4
  %14 = getelementptr inbounds %struct._zval_struct, ptr %13, i32 0, i32 2
  %15 = load i32, ptr %14, align 4
  %16 = icmp ne i32 %15, 0
  %17 = xor i1 %16, true
  %18 = xor i1 %17, true
  %19 = zext i1 %18 to i32
  %20 = sext i32 %19 to i64
  %21 = icmp ne i64 %20, 0
  br i1 %21, label %22, label %23

22:                                               ; preds = %11
  call void @zend_wrong_parameters_none_error()
  br label %123

23:                                               ; preds = %11
  br label %24

24:                                               ; preds = %23
  %25 = load ptr, ptr %5, align 8
  %26 = getelementptr inbounds %struct._zend_execute_data, ptr %25, i32 0, i32 4
  %27 = getelementptr inbounds %struct._zval_struct, ptr %26, i32 0, i32 0
  %28 = load ptr, ptr %27, align 8
  %29 = call ptr @spl_fixed_array_from_obj(ptr noundef %28)
  store ptr %29, ptr %7, align 8
  br label %30

30:                                               ; preds = %24
  %31 = load ptr, ptr %7, align 8
  %32 = getelementptr inbounds %struct._spl_fixedarray_object, ptr %31, i32 0, i32 0
  %33 = getelementptr inbounds %struct._spl_fixedarray, ptr %32, i32 0, i32 0
  %34 = load i64, ptr %33, align 8
  %35 = call i1 @llvm.is.constant.i64(i64 %34)
  br i1 %35, label %36, label %54

36:                                               ; preds = %30
  %37 = load ptr, ptr %7, align 8
  %38 = getelementptr inbounds %struct._spl_fixedarray_object, ptr %37, i32 0, i32 0
  %39 = getelementptr inbounds %struct._spl_fixedarray, ptr %38, i32 0, i32 0
  %40 = load i64, ptr %39, align 8
  %41 = trunc i64 %40 to i32
  %42 = icmp ule i32 %41, 8
  br i1 %42, label %43, label %45

43:                                               ; preds = %36
  %44 = call ptr @_zend_new_array_0()
  br label %52

45:                                               ; preds = %36
  %46 = load ptr, ptr %7, align 8
  %47 = getelementptr inbounds %struct._spl_fixedarray_object, ptr %46, i32 0, i32 0
  %48 = getelementptr inbounds %struct._spl_fixedarray, ptr %47, i32 0, i32 0
  %49 = load i64, ptr %48, align 8
  %50 = trunc i64 %49 to i32
  %51 = call ptr @_zend_new_array(i32 noundef %50)
  br label %52

52:                                               ; preds = %45, %43
  %53 = phi ptr [ %44, %43 ], [ %51, %45 ]
  br label %61

54:                                               ; preds = %30
  %55 = load ptr, ptr %7, align 8
  %56 = getelementptr inbounds %struct._spl_fixedarray_object, ptr %55, i32 0, i32 0
  %57 = getelementptr inbounds %struct._spl_fixedarray, ptr %56, i32 0, i32 0
  %58 = load i64, ptr %57, align 8
  %59 = trunc i64 %58 to i32
  %60 = call ptr @_zend_new_array(i32 noundef %59)
  br label %61

61:                                               ; preds = %54, %52
  %62 = phi ptr [ %53, %52 ], [ %60, %54 ]
  store ptr %62, ptr %8, align 8
  %63 = load ptr, ptr %6, align 8
  store ptr %63, ptr %9, align 8
  %64 = load ptr, ptr %8, align 8
  %65 = load ptr, ptr %9, align 8
  %66 = getelementptr inbounds %struct._zval_struct, ptr %65, i32 0, i32 0
  store ptr %64, ptr %66, align 8
  %67 = load ptr, ptr %9, align 8
  %68 = getelementptr inbounds %struct._zval_struct, ptr %67, i32 0, i32 1
  store i32 775, ptr %68, align 8
  br label %69

69:                                               ; preds = %61
  store i64 0, ptr %10, align 8
  br label %70

70:                                               ; preds = %120, %69
  %71 = load i64, ptr %10, align 8
  %72 = load ptr, ptr %7, align 8
  %73 = getelementptr inbounds %struct._spl_fixedarray_object, ptr %72, i32 0, i32 0
  %74 = getelementptr inbounds %struct._spl_fixedarray, ptr %73, i32 0, i32 0
  %75 = load i64, ptr %74, align 8
  %76 = icmp slt i64 %71, %75
  br i1 %76, label %77, label %123

77:                                               ; preds = %70
  %78 = load ptr, ptr %6, align 8
  %79 = getelementptr inbounds %struct._zval_struct, ptr %78, i32 0, i32 0
  %80 = load ptr, ptr %79, align 8
  %81 = load ptr, ptr %7, align 8
  %82 = getelementptr inbounds %struct._spl_fixedarray_object, ptr %81, i32 0, i32 0
  %83 = getelementptr inbounds %struct._spl_fixedarray, ptr %82, i32 0, i32 1
  %84 = load ptr, ptr %83, align 8
  %85 = load i64, ptr %10, align 8
  %86 = getelementptr inbounds %struct._zval_struct, ptr %84, i64 %85
  %87 = call ptr @zend_hash_next_index_insert_new(ptr noundef %80, ptr noundef %86)
  br label %88

88:                                               ; preds = %77
  %89 = load ptr, ptr %7, align 8
  %90 = getelementptr inbounds %struct._spl_fixedarray_object, ptr %89, i32 0, i32 0
  %91 = getelementptr inbounds %struct._spl_fixedarray, ptr %90, i32 0, i32 1
  %92 = load ptr, ptr %91, align 8
  %93 = load i64, ptr %10, align 8
  %94 = getelementptr inbounds %struct._zval_struct, ptr %92, i64 %93
  %95 = getelementptr inbounds %struct._zval_struct, ptr %94, i32 0, i32 1
  %96 = getelementptr inbounds %struct.anon.0, ptr %95, i32 0, i32 1
  %97 = load i8, ptr %96, align 1
  %98 = zext i8 %97 to i32
  %99 = icmp ne i32 %98, 0
  br i1 %99, label %100, label %118

100:                                              ; preds = %88
  %101 = load ptr, ptr %7, align 8
  %102 = getelementptr inbounds %struct._spl_fixedarray_object, ptr %101, i32 0, i32 0
  %103 = getelementptr inbounds %struct._spl_fixedarray, ptr %102, i32 0, i32 1
  %104 = load ptr, ptr %103, align 8
  %105 = load i64, ptr %10, align 8
  %106 = getelementptr inbounds %struct._zval_struct, ptr %104, i64 %105
  store ptr %106, ptr %4, align 8
  %107 = load ptr, ptr %4, align 8
  %108 = getelementptr inbounds %struct._zval_struct, ptr %107, i32 0, i32 1
  %109 = getelementptr inbounds %struct.anon.0, ptr %108, i32 0, i32 1
  %110 = load i8, ptr %109, align 1
  %111 = zext i8 %110 to i32
  %112 = icmp ne i32 %111, 0
  call void @llvm.assume(i1 %112)
  %113 = load ptr, ptr %4, align 8
  %114 = load ptr, ptr %113, align 8
  store ptr %114, ptr %3, align 8
  %115 = load ptr, ptr %3, align 8
  %116 = load i32, ptr %115, align 4
  %117 = add i32 %116, 1
  store i32 %117, ptr %115, align 4
  br label %118

118:                                              ; preds = %100, %88
  br label %119

119:                                              ; preds = %118
  br label %120

120:                                              ; preds = %119
  %121 = load i64, ptr %10, align 8
  %122 = add nsw i64 %121, 1
  store i64 %122, ptr %10, align 8
  br label %70

123:                                              ; preds = %70, %22
  ret void
}