; Function Attrs: nounwind uwtable
define hidden void @zim_SplFixedArray_jsonSerialize(ptr nocapture noundef readonly %0, ptr nocapture noundef %1) #0 {
  %3 = getelementptr inbounds i8, ptr %0, i64 44
  %4 = load i32, ptr %3, align 4
  %.not = icmp eq i32 %4, 0
  br i1 %.not, label %6, label %5

5:                                                ; preds = %2
  tail call void @zend_wrong_parameters_none_error() #12
  br label %.loopexit

6:                                                ; preds = %2
  %7 = getelementptr inbounds i8, ptr %0, i64 32
  %8 = load ptr, ptr %7, align 8
  %9 = getelementptr inbounds i8, ptr %8, i64 -32
  %10 = load i64, ptr %9, align 8
  %11 = trunc i64 %10 to i32
  %12 = tail call ptr @_zend_new_array(i32 noundef %11) #12
  store ptr %12, ptr %1, align 8
  %13 = getelementptr inbounds i8, ptr %1, i64 8
  store i32 775, ptr %13, align 8
  %14 = load i64, ptr %9, align 8
  %15 = icmp sgt i64 %14, 0
  br i1 %15, label %.lr.ph, label %.loopexit

.lr.ph:                                           ; preds = %6
  %16 = getelementptr inbounds i8, ptr %8, i64 -24
  br label %17

17:                                               ; preds = %.lr.ph, %30
  %.024 = phi i64 [ 0, %.lr.ph ], [ %31, %30 ]
  %18 = load ptr, ptr %1, align 8
  %19 = load ptr, ptr %16, align 8
  %20 = getelementptr inbounds %struct._zval_struct, ptr %19, i64 %.024
  %21 = tail call ptr @zend_hash_next_index_insert_new(ptr noundef %18, ptr noundef %20) #12
  %22 = load ptr, ptr %16, align 8
  %23 = getelementptr inbounds %struct._zval_struct, ptr %22, i64 %.024
  %24 = getelementptr inbounds i8, ptr %23, i64 9
  %25 = load i8, ptr %24, align 1
  %.not23 = icmp eq i8 %25, 0
  br i1 %.not23, label %30, label %26

26:                                               ; preds = %17
  %27 = load ptr, ptr %23, align 8
  %28 = load i32, ptr %27, align 4
  %29 = add i32 %28, 1
  store i32 %29, ptr %27, align 4
  br label %30

30:                                               ; preds = %26, %17
  %31 = add nuw nsw i64 %.024, 1
  %32 = load i64, ptr %9, align 8
  %33 = icmp slt i64 %31, %32
  br i1 %33, label %17, label %.loopexit

.loopexit:                                        ; preds = %30, %6, %5
  ret void
}